; Function Attrs: mustprogress nofree norecurse nosync nounwind willreturn memory(write, argmem: readwrite, inaccessiblemem: none) uwtable
define internal void @_ZN7rocksdb12_GLOBAL__N_18PosixEnv22SetAllowNonOwnerAccessEb(ptr noalias nocapture writeonly sret(%"class.rocksdb::Status") align 8 %agg.result, ptr nocapture noundef nonnull readonly align 8 dereferenceable(200) %this, i1 noundef zeroext %allow_non_owner_access) unnamed_addr #9 align 2 personality ptr @__gxx_personality_v0 {
entry:
  %frombool = zext i1 %allow_non_owner_access to i8
  %allow_non_owner_access_ = getelementptr inbounds i8, ptr %this, i64 192
  %0 = load ptr, ptr %allow_non_owner_access_, align 8
  store i8 %frombool, ptr %0, align 1
  %state_.i.i = getelementptr inbounds i8, ptr %agg.result, i64 8
  store ptr null, ptr %state_.i.i, align 8, !alias.scope !17
  tail call void @llvm.memset.p0.i64(ptr noundef nonnull align 8 dereferenceable(6) %agg.result, i8 0, i64 6, i1 false), !alias.scope !17
  ret void
}